; Function Attrs: nounwind uwtable
define dso_local i32 @rdbLoadRio(ptr noundef initializes((32, 40), (64, 72)) %0, i32 noundef %1, ptr noundef captures(address_is_null) %2) local_unnamed_addr #0 {
  %4 = alloca %struct.rdbLoadingCtx, align 8
  %5 = tail call ptr @functionsLibCtxGetCurrent() #23
  call void @llvm.lifetime.start.p0(i64 16, ptr nonnull %4) #23
  %6 = load ptr, ptr getelementptr inbounds nuw (i8, ptr @server, i64 64), align 8, !tbaa !157
  store ptr %6, ptr %4, align 8, !tbaa !233
  %7 = getelementptr inbounds nuw i8, ptr %4, i64 8
  store ptr %5, ptr %7, align 8, !tbaa !236
  %8 = call i32 @rdbLoadRioWithLoadingCtx(ptr noundef %0, i32 noundef %1, ptr noundef %2, ptr noundef nonnull %4)
  call void @llvm.lifetime.end.p0(i64 16, ptr nonnull %4) #23
  ret i32 %8
}